ccopy_reg
_reconstructor
p0
(cdedupe.datamodel
DataModel
p1
c__builtin__
object
p2
Ntp3
Rp4
(dp5
S'primary_fields'
p6
(lp7
g0
(cdedupe.variables.string
StringType
p8
g2
Ntp9
Rp10
(dp11
S'predicates'
p12
(lp13
g0
(cdedupe.predicates
StringPredicate
p14
g2
Ntp15
Rp16
(dp17
S'_cached_hash'
p18
I8010074004535295765
sS'__name__'
p19
S'(wholeFieldPredicate, p_brand)'
p20
sS'func'
p21
cdedupe.predicates
wholeFieldPredicate
p22
sS'field'
p23
S'p_brand'
p24
sbag0
(g14
g2
Ntp25
Rp26
(dp27
g18
I-808944164759276133
sg19
S'(firstTokenPredicate, p_brand)'
p28
sS'count'
p29
F2484.0
sg21
cdedupe.predicates
firstTokenPredicate
p30
sg23
g24
sbag0
(g14
g2
Ntp31
Rp32
(dp33
g18
I8212036849951515806
sg19
S'(commonIntegerPredicate, p_brand)'
p34
sg21
cdedupe.predicates
commonIntegerPredicate
p35
sg23
g24
sbag0
(g14
g2
Ntp36
Rp37
(dp38
g18
I7599748098561800187
sg19
S'(nearIntegersPredicate, p_brand)'
p39
sg21
cdedupe.predicates
nearIntegersPredicate
p40
sg23
g24
sbag0
(g14
g2
Ntp41
Rp42
(dp43
g18
I8887559565208530930
sg19
S'(firstIntegerPredicate, p_brand)'
p44
sg21
cdedupe.predicates
firstIntegerPredicate
p45
sg23
g24
sbag0
(g14
g2
Ntp46
Rp47
(dp48
g18
I-46504840928446534
sg19
S'(sameThreeCharStartPredicate, p_brand)'
p49
sg21
cdedupe.predicates
sameThreeCharStartPredicate
p50
sg23
g24
sbag0
(g14
g2
Ntp51
Rp52
(dp53
g18
I-6953498220512535659
sg19
S'(sameFiveCharStartPredicate, p_brand)'
p54
sg21
cdedupe.predicates
sameFiveCharStartPredicate
p55
sg23
g24
sbag0
(g14
g2
Ntp56
Rp57
(dp58
g18
I-4033270993787121307
sg19
S'(sameSevenCharStartPredicate, p_brand)'
p59
sg21
cdedupe.predicates
sameSevenCharStartPredicate
p60
sg23
g24
sbag0
(g14
g2
Ntp61
Rp62
(dp63
g18
I-6005515862990792834
sg19
S'(commonTwoTokens, p_brand)'
p64
sg21
cdedupe.predicates
commonTwoTokens
p65
sg23
g24
sbag0
(g14
g2
Ntp66
Rp67
(dp68
g18
I6758060317101319894
sg19
S'(commonThreeTokens, p_brand)'
p69
sg21
cdedupe.predicates
commonThreeTokens
p70
sg23
g24
sbag0
(g14
g2
Ntp71
Rp72
(dp73
g18
I-6608982275224967421
sg19
S'(fingerprint, p_brand)'
p74
sg21
cdedupe.predicates
fingerprint
p75
sg23
g24
sbag0
(g14
g2
Ntp76
Rp77
(dp78
g18
I8842964102137335931
sg19
S'(oneGramFingerprint, p_brand)'
p79
sg21
cdedupe.predicates
oneGramFingerprint
p80
sg23
g24
sbag0
(g14
g2
Ntp81
Rp82
(dp83
g18
I8512615985662211713
sg19
S'(twoGramFingerprint, p_brand)'
p84
sg21
cdedupe.predicates
twoGramFingerprint
p85
sg23
g24
sbag0
(g14
g2
Ntp86
Rp87
(dp88
g18
I8056184978332427127
sg19
S'(sortedAcronym, p_brand)'
p89
sg21
cdedupe.predicates
sortedAcronym
p90
sg23
g24
sbag0
(g14
g2
Ntp91
Rp92
(dp93
g18
I-6898066715849559122
sg19
S'(commonFourGram, p_brand)'
p94
sg21
cdedupe.predicates
commonFourGram
p95
sg23
g24
sbag0
(g14
g2
Ntp96
Rp97
(dp98
g18
I-6113621740842542675
sg19
S'(commonSixGram, p_brand)'
p99
sg21
cdedupe.predicates
commonSixGram
p100
sg23
g24
sbag0
(g14
g2
Ntp101
Rp102
(dp103
g18
I6512556488902714267
sg19
S'(tokenFieldPredicate, p_brand)'
p104
sg21
cdedupe.predicates
tokenFieldPredicate
p105
sg23
g24
sbag0
(g14
g2
Ntp106
Rp107
(dp108
g18
I583716055926836141
sg19
S'(suffixArray, p_brand)'
p109
sg21
cdedupe.predicates
suffixArray
p110
sg23
g24
sbag0
(g14
g2
Ntp111
Rp112
(dp113
g18
I7497705477566224459
sg19
S'(doubleMetaphone, p_brand)'
p114
sg21
cdedupe.predicates
doubleMetaphone
p115
sg23
g24
sbag0
(g14
g2
Ntp116
Rp117
(dp118
g18
I3626946844902459156
sg19
S'(metaphoneToken, p_brand)'
p119
sg21
cdedupe.predicates
metaphoneToken
p120
sg23
g24
sbag0
(cdedupe.predicates
TfidfNGramCanopyPredicate
p121
g2
Ntp122
Rp123
(dp124
S'threshold'
p125
F0.2
sg19
S'(0.2, p_brand)'
p126
sg23
g24
sbag0
(g121
g2
Ntp127
Rp128
(dp129
g125
F0.4
sg19
S'(0.4, p_brand)'
p130
sg23
g24
sbag0
(g121
g2
Ntp131
Rp132
(dp133
g125
F0.6
sg19
S'(0.6, p_brand)'
p134
sg23
g24
sbag0
(g121
g2
Ntp135
Rp136
(dp137
g125
F0.8
sg19
S'(0.8, p_brand)'
p138
sg23
g24
sbag0
(cdedupe.predicates
TfidfNGramSearchPredicate
p139
g2
Ntp140
Rp141
(dp142
g125
F0.2
sg19
S'(0.2, p_brand)'
p143
sg23
g24
sbag0
(g139
g2
Ntp144
Rp145
(dp146
g125
F0.4
sg19
S'(0.4, p_brand)'
p147
sg23
g24
sbag0
(g139
g2
Ntp148
Rp149
(dp150
g125
F0.6
sg19
S'(0.6, p_brand)'
p151
sg23
g24
sbag0
(g139
g2
Ntp152
Rp153
(dp154
g125
F0.8
sg19
S'(0.8, p_brand)'
p155
sg23
g24
sbag0
(cdedupe.predicates
TfidfTextCanopyPredicate
p156
g2
Ntp157
Rp158
(dp159
g125
F0.2
sg19
S'(0.2, p_brand)'
p160
sg23
g24
sbag0
(g156
g2
Ntp161
Rp162
(dp163
g125
F0.4
sg19
S'(0.4, p_brand)'
p164
sg23
g24
sbag0
(g156
g2
Ntp165
Rp166
(dp167
g125
F0.6
sg19
S'(0.6, p_brand)'
p168
sg23
g24
sbag0
(g156
g2
Ntp169
Rp170
(dp171
g125
F0.8
sg19
S'(0.8, p_brand)'
p172
sg23
g24
sbag0
(cdedupe.predicates
TfidfTextSearchPredicate
p173
g2
Ntp174
Rp175
(dp176
g125
F0.2
sg19
S'(0.2, p_brand)'
p177
sg23
g24
sbag0
(g173
g2
Ntp178
Rp179
(dp180
g125
F0.4
sg19
S'(0.4, p_brand)'
p181
sg23
g24
sbag0
(g173
g2
Ntp182
Rp183
(dp184
g125
F0.6
sg19
S'(0.6, p_brand)'
p185
sg23
g24
sbag0
(g173
g2
Ntp186
Rp187
(dp188
g125
F0.8
sg19
S'(0.8, p_brand)'
p189
sg23
g24
sbag0
(cdedupe.predicates
LevenshteinCanopyPredicate
p190
g2
Ntp191
Rp192
(dp193
g125
I1
sg19
S'(1, p_brand)'
p194
sg23
g24
sbag0
(g190
g2
Ntp195
Rp196
(dp197
g125
I2
sg19
S'(2, p_brand)'
p198
sg23
g24
sbag0
(g190
g2
Ntp199
Rp200
(dp201
g125
I3
sg19
S'(3, p_brand)'
p202
sg23
g24
sbag0
(g190
g2
Ntp203
Rp204
(dp205
g125
I4
sg19
S'(4, p_brand)'
p206
sg23
g24
sbag0
(cdedupe.predicates
LevenshteinSearchPredicate
p207
g2
Ntp208
Rp209
(dp210
g125
I1
sg19
S'(1, p_brand)'
p211
sg23
g24
sbag0
(g207
g2
Ntp212
Rp213
(dp214
g125
I2
sg19
S'(2, p_brand)'
p215
sg23
g24
sbag0
(g207
g2
Ntp216
Rp217
(dp218
g125
I3
sg19
S'(3, p_brand)'
p219
sg23
g24
sbag0
(g207
g2
Ntp220
Rp221
(dp222
g125
I4
sg19
S'(4, p_brand)'
p223
sg23
g24
sbasg23
g24
sS'name'
p224
S'(p_brand: String)'
p225
sS'has_missing'
p226
I00
sS'comparator'
p227
caffinegap.affinegap
normalizedAffineGapDistance
p228
sbasS'_variables'
p229
(lp230
g10
asS'_missing_field_indices'
p231
(lp232
sS'_derived_start'
p233
I1
sS'_interaction_indices'
p234
(lp235
sb.ccopy_reg
_reconstructor
p0
(crlr.lr
RegularizedLogisticRegression
p1
c__builtin__
object
p2
Ntp3
Rp4
(dp5
S'alpha'
p6
F0.01
sS'bias'
p7
cnumpy.core.multiarray
scalar
p8
(cnumpy
dtype
p9
(S'f8'
p10
I0
I1
tp11
Rp12
(I3
S'<'
p13
NNNI-1
I-1
I0
tp14
bS'\xc0\x18\xfa\x7f\xa6<\x01@'
p15
tp16
Rp17
sS'num_cores'
p18
I0
sS'cv'
p19
I3
sS'weights'
p20
cnumpy.core.multiarray
_reconstruct
p21
(cnumpy
ndarray
p22
(I0
tp23
S'b'
p24
tp25
Rp26
(I1
(I1
tp27
g12
I00
S"\x88\xbe'0yW\x04\xc0"
p28
tp29
bsb.(ccopy_reg
_reconstructor
p0
(cdedupe.predicates
StringPredicate
p1
c__builtin__
object
p2
Ntp3
Rp4
(dp5
S'_cached_hash'
p6
I-808944164759276133
sS'__name__'
p7
S'(firstTokenPredicate, p_brand)'
p8
sS'count'
p9
F2484.0
sS'func'
p10
cdedupe.predicates
firstTokenPredicate
p11
sS'field'
p12
S'p_brand'
p13
sbtp14
.